; Function Attrs: mustprogress uwtable
define void @_ZN7rocksdb21EncryptedWritableFile5CloseERKNS_9IOOptionsEPNS_14IODebugContextE(ptr dead_on_unwind noalias writable sret(%"class.rocksdb::IOStatus") align 8 %0, ptr noundef nonnull readonly align 8 captures(none) dereferenceable(64) %1, ptr noundef nonnull align 8 dereferenceable(84) %2, ptr noundef %3) unnamed_addr #3 align 2 {
  %5 = getelementptr inbounds nuw i8, ptr %1, i64 40
  %6 = load ptr, ptr %5, align 8, !tbaa !108
  %7 = load ptr, ptr %6, align 8, !tbaa !13
  %8 = getelementptr inbounds nuw i8, ptr %7, i64 56
  %9 = load ptr, ptr %8, align 8
  tail call void %9(ptr dead_on_unwind writable sret(%"class.rocksdb::IOStatus") align 8 %0, ptr noundef nonnull align 8 dereferenceable(33) %6, ptr noundef nonnull align 8 dereferenceable(84) %2, ptr noundef %3)
  ret void
}